(dp0
S'init_upload_slots'
p1
I10
sS'disk_cache_auto'
p2
I01
sS'upnp_enabled'
p3
I01
sS'allow_remote_settings_access'
p4
I00
sS'fix_upload_slots'
p5
I01
sS'memory_cache_limit'
p6
I268435456
sS'debug_from_ui_enabled'
p7
I0
sS'total_max_upload_rate'
p8
I512
sS'enable_interruptable_ads'
p9
I00
sS'max_download_rate'
p10
F1542.291296242653
sS'download_dir'
p11
Vc:\u005c_acestream_cache_
p12
sS'live_cache_type'
p13
S'memory'
p14
sS'ad_storage_limit'
p15
L1073741824L
sS'max_peers'
p16
I50
sS'max_connects'
p17
I500
sS'vod_cache_type'
p18
g14
sS'wait_sufficient_speed'
p19
I00
sS'live_buffer_time'
p20
I10
sS'total_max_download_rate'
p21
I4096
sS'player_buffer_time'
p22
I3
sS'auto_download_limit'
p23
I00
s.